; Function Attrs: mustprogress uwtable
define void @_ZNK2cv4gapi4onnx8PyParams6paramsEv(ptr dead_on_unwind noalias writable writeonly sret(%"class.cv::util::any") align 8 captures(none) %0, ptr noundef nonnull readonly align 8 captures(none) dereferenceable(16) %1) local_unnamed_addr #3 align 2 personality ptr @__gxx_personality_v0 {
  %3 = load ptr, ptr %1, align 8, !tbaa !6
  tail call void @llvm.experimental.noalias.scope.decl(metadata !107)
  %4 = tail call noalias noundef nonnull dereferenceable(544) ptr @_Znwm(i64 noundef 544) #23, !noalias !107
  store ptr getelementptr inbounds nuw inrange(-16, 24) (i8, ptr @_ZTVN2cv4util3any11holder_implINS_4gapi4onnx6detail9ParamDescEEE, i64 16), ptr %4, align 8, !tbaa !18, !noalias !107
  %5 = getelementptr inbounds nuw i8, ptr %4, i64 8
  invoke void @_ZN2cv4gapi4onnx6detail9ParamDescC2ERKS3_(ptr noundef nonnull align 8 dereferenceable(536) %5, ptr noundef nonnull align 8 dereferenceable(568) %3)
          to label %_ZNK2cv4gapi4onnx6ParamsINS0_7GenericEE6paramsEv.exit unwind label %6, !noalias !107

6:                                                ; preds = %2
  %7 = landingpad { ptr, i32 }
          cleanup
  tail call void @_ZdlPv(ptr noundef nonnull %4) #24, !noalias !107
  resume { ptr, i32 } %7

_ZNK2cv4gapi4onnx6ParamsINS0_7GenericEE6paramsEv.exit: ; preds = %2
  store ptr %4, ptr %0, align 8, !tbaa !110, !alias.scope !107
  ret void
}